; Function Attrs: inlinehint nounwind sspstrong uwtable
define internal fastcc zeroext i1 @rb_ractor_shareable_p(i64 noundef %0) unnamed_addr #7 {
  %2 = icmp eq i64 %0, 0
  %3 = and i64 %0, 7
  %4 = icmp ne i64 %3, 0
  %5 = or i1 %2, %4
  br i1 %5, label %12, label %6

6:                                                ; preds = %1
  %7 = inttoptr i64 %0 to ptr
  %8 = load i64, ptr %7, align 8, !tbaa !28
  %9 = and i64 %8, 256
  %.not = icmp eq i64 %9, 0
  br i1 %.not, label %10, label %12

10:                                               ; preds = %6
  %11 = tail call zeroext i1 @rb_ractor_shareable_p_continue(i64 noundef %0) #27
  br label %12

12:                                               ; preds = %6, %1, %10
  %.0 = phi i1 [ %11, %10 ], [ true, %1 ], [ true, %6 ]
  ret i1 %.0
}